; Function Attrs: mustprogress uwtable
define void @udata_printError_77(ptr noundef readonly captures(none) %0, ptr noundef %1, ...) local_unnamed_addr #0 {
  %3 = alloca [1 x %struct.__va_list_tag], align 16
  call void @llvm.lifetime.start.p0(i64 24, ptr nonnull %3) #12
  %4 = getelementptr inbounds nuw i8, ptr %0, i64 80
  %5 = load ptr, ptr %4, align 8, !tbaa !15
  %.not = icmp eq ptr %5, null
  br i1 %.not, label %10, label %6

6:                                                ; preds = %2
  call void @llvm.va_start.p0(ptr nonnull %3)
  %7 = load ptr, ptr %4, align 8, !tbaa !15
  %8 = getelementptr inbounds nuw i8, ptr %0, i64 88
  %9 = load ptr, ptr %8, align 8, !tbaa !16
  call void %7(ptr noundef %9, ptr noundef %1, ptr noundef nonnull %3)
  call void @llvm.va_end.p0(ptr nonnull %3)
  br label %10

10:                                               ; preds = %6, %2
  call void @llvm.lifetime.end.p0(i64 24, ptr nonnull %3) #12
  ret void
}